target datalayout = "e-m:e-p270:32:32-p271:32:32-p272:64:64-i64:64-i128:128-f80:128-n8:16:32:64-S128"
target triple = "x86_64-pc-linux-gnu"

%struct.SurfaceDataRasInfo = type { %struct.SurfaceDataBounds, ptr, i32, i32, i32, i32, ptr, ptr, ptr, ptr, ptr, ptr, i32, %union.anon.0 }
%struct.SurfaceDataBounds = type { i32, i32, i32, i32 }
%union.anon.0 = type { ptr, [56 x i8] }

; Function Attrs: nounwind uwtable
define hidden void @ByteGrayToUshort565RgbConvert(ptr noundef %0, ptr noundef %1, i32 noundef %2, i32 noundef %3, ptr noundef %4, ptr noundef %5, ptr noundef %6, ptr noundef %7) #1 {
  %9 = alloca ptr, align 8
  %10 = alloca ptr, align 8
  %11 = alloca i32, align 4
  %12 = alloca i32, align 4
  %13 = alloca ptr, align 8
  %14 = alloca ptr, align 8
  %15 = alloca ptr, align 8
  %16 = alloca ptr, align 8
  %17 = alloca ptr, align 8
  %18 = alloca ptr, align 8
  %19 = alloca i32, align 4
  %20 = alloca i32, align 4
  %21 = alloca i32, align 4
  %22 = alloca i32, align 4
  %23 = alloca i32, align 4
  %24 = alloca i32, align 4
  store ptr %0, ptr %9, align 8
  store ptr %1, ptr %10, align 8
  store i32 %2, ptr %11, align 4
  store i32 %3, ptr %12, align 4
  store ptr %4, ptr %13, align 8
  store ptr %5, ptr %14, align 8
  store ptr %6, ptr %15, align 8
  store ptr %7, ptr %16, align 8
  br label %25

25:                                               ; preds = %8
  %26 = load ptr, ptr %9, align 8
  store ptr %26, ptr %17, align 8
  %27 = load ptr, ptr %10, align 8
  store ptr %27, ptr %18, align 8
  %28 = load ptr, ptr %13, align 8
  %29 = getelementptr inbounds %struct.SurfaceDataRasInfo, ptr %28, i32 0, i32 4
  %30 = load i32, ptr %29, align 8
  store i32 %30, ptr %19, align 4
  %31 = load ptr, ptr %14, align 8
  %32 = getelementptr inbounds %struct.SurfaceDataRasInfo, ptr %31, i32 0, i32 4
  %33 = load i32, ptr %32, align 8
  store i32 %33, ptr %20, align 4
  %34 = load i32, ptr %11, align 4
  %35 = mul i32 %34, 1
  %36 = load i32, ptr %19, align 4
  %37 = sub i32 %36, %35
  store i32 %37, ptr %19, align 4
  %38 = load i32, ptr %11, align 4
  %39 = mul i32 %38, 2
  %40 = load i32, ptr %20, align 4
  %41 = sub i32 %40, %39
  store i32 %41, ptr %20, align 4
  br label %42

42:                                               ; preds = %90, %25
  %43 = load i32, ptr %11, align 4
  store i32 %43, ptr %21, align 4
  br label %44

44:                                               ; preds = %73, %42
  br label %45

45:                                               ; preds = %44
  %46 = load ptr, ptr %17, align 8
  %47 = getelementptr inbounds i8, ptr %46, i64 0
  %48 = load i8, ptr %47, align 1
  %49 = zext i8 %48 to i32
  store i32 %49, ptr %24, align 4
  store i32 %49, ptr %23, align 4
  store i32 %49, ptr %22, align 4
  %50 = load i32, ptr %22, align 4
  %51 = ashr i32 %50, 3
  %52 = shl i32 %51, 11
  %53 = load i32, ptr %23, align 4
  %54 = ashr i32 %53, 2
  %55 = shl i32 %54, 5
  %56 = or i32 %52, %55
  %57 = load i32, ptr %24, align 4
  %58 = ashr i32 %57, 3
  %59 = shl i32 %58, 0
  %60 = or i32 %56, %59
  %61 = trunc i32 %60 to i16
  %62 = load ptr, ptr %18, align 8
  %63 = getelementptr inbounds i16, ptr %62, i64 0
  store i16 %61, ptr %63, align 2
  br label %64

64:                                               ; preds = %45
  %65 = load ptr, ptr %17, align 8
  %66 = ptrtoint ptr %65 to i64
  %67 = add nsw i64 %66, 1
  %68 = inttoptr i64 %67 to ptr
  store ptr %68, ptr %17, align 8
  %69 = load ptr, ptr %18, align 8
  %70 = ptrtoint ptr %69 to i64
  %71 = add nsw i64 %70, 2
  %72 = inttoptr i64 %71 to ptr
  store ptr %72, ptr %18, align 8
  br label %73

73:                                               ; preds = %64
  %74 = load i32, ptr %21, align 4
  %75 = add i32 %74, -1
  store i32 %75, ptr %21, align 4
  %76 = icmp ugt i32 %75, 0
  br i1 %76, label %44, label %77, !llvm.loop !13

77:                                               ; preds = %73
  %78 = load ptr, ptr %17, align 8
  %79 = ptrtoint ptr %78 to i64
  %80 = load i32, ptr %19, align 4
  %81 = sext i32 %80 to i64
  %82 = add nsw i64 %79, %81
  %83 = inttoptr i64 %82 to ptr
  store ptr %83, ptr %17, align 8
  %84 = load ptr, ptr %18, align 8
  %85 = ptrtoint ptr %84 to i64
  %86 = load i32, ptr %20, align 4
  %87 = sext i32 %86 to i64
  %88 = add nsw i64 %85, %87
  %89 = inttoptr i64 %88 to ptr
  store ptr %89, ptr %18, align 8
  br label %90

90:                                               ; preds = %77
  %91 = load i32, ptr %12, align 4
  %92 = add i32 %91, -1
  store i32 %92, ptr %12, align 4
  %93 = icmp ugt i32 %92, 0
  br i1 %93, label %42, label %94, !llvm.loop !14

94:                                               ; preds = %90
  br label %95

95:                                               ; preds = %94
  ret void
}