; Function Attrs: nofree norecurse nosync nounwind memory(readwrite, inaccessiblemem: none) uwtable
define hidden void @ByteGrayToUshort565RgbConvert(ptr noundef %0, ptr noundef %1, i32 noundef %2, i32 noundef %3, ptr nocapture noundef readonly %4, ptr nocapture noundef readonly %5, ptr nocapture readnone %6, ptr nocapture readnone %7) #1 {
  %9 = getelementptr inbounds i8, ptr %4, i64 32
  %10 = load i32, ptr %9, align 8
  %11 = getelementptr inbounds i8, ptr %5, i64 32
  %12 = load i32, ptr %11, align 8
  %13 = sub i32 %10, %2
  %14 = shl i32 %2, 1
  %15 = sub i32 %12, %14
  %16 = sext i32 %13 to i64
  %17 = sext i32 %15 to i64
  br label %18

18:                                               ; preds = %35, %8
  %.022 = phi ptr [ %1, %8 ], [ %39, %35 ]
  %.021 = phi ptr [ %0, %8 ], [ %37, %35 ]
  %.0 = phi i32 [ %3, %8 ], [ %40, %35 ]
  br label %19

19:                                               ; preds = %19, %18
  %.024 = phi i32 [ %2, %18 ], [ %34, %19 ]
  %.123 = phi ptr [ %.022, %18 ], [ %33, %19 ]
  %.1 = phi ptr [ %.021, %18 ], [ %30, %19 ]
  %20 = load i8, ptr %.1, align 1
  %21 = zext i8 %20 to i16
  %22 = lshr i16 %21, 3
  %23 = shl nuw i16 %22, 11
  %24 = shl nuw nsw i16 %21, 3
  %25 = and i16 %24, 2016
  %26 = or disjoint i16 %23, %25
  %27 = or disjoint i16 %26, %22
  store i16 %27, ptr %.123, align 2
  %28 = ptrtoint ptr %.1 to i64
  %29 = add nsw i64 %28, 1
  %30 = inttoptr i64 %29 to ptr
  %31 = ptrtoint ptr %.123 to i64
  %32 = add nsw i64 %31, 2
  %33 = inttoptr i64 %32 to ptr
  %34 = add i32 %.024, -1
  %.not = icmp eq i32 %34, 0
  br i1 %.not, label %35, label %19, !llvm.loop !13

35:                                               ; preds = %19
  %36 = add nsw i64 %29, %16
  %37 = inttoptr i64 %36 to ptr
  %38 = add nsw i64 %32, %17
  %39 = inttoptr i64 %38 to ptr
  %40 = add i32 %.0, -1
  %.not26 = icmp eq i32 %40, 0
  br i1 %.not26, label %41, label %18, !llvm.loop !14

41:                                               ; preds = %35
  ret void
}